target datalayout = "e-m:e-p270:32:32-p271:32:32-p272:64:64-i64:64-i128:128-f80:128-n8:16:32:64-S128"
target triple = "x86_64-pc-linux-gnu"

; Function Attrs: nounwind uwtable
define internal i32 @BytePrecision(i32 noundef %0) #0 {
  %2 = alloca i32, align 4
  %3 = alloca i32, align 4
  store i32 %0, ptr %2, align 4, !tbaa !3
  call void @llvm.lifetime.start.p0(i64 4, ptr %3) #9
  store i32 4, ptr %3, align 4, !tbaa !3
  br label %4

4:                                                ; preds = %16, %1
  %5 = load i32, ptr %3, align 4, !tbaa !3
  %6 = icmp ne i32 %5, 0
  br i1 %6, label %7, label %19

7:                                                ; preds = %4
  %8 = load i32, ptr %2, align 4, !tbaa !3
  %9 = load i32, ptr %3, align 4, !tbaa !3
  %10 = sub i32 %9, 1
  %11 = mul i32 %10, 8
  %12 = lshr i32 %8, %11
  %13 = icmp ne i32 %12, 0
  br i1 %13, label %14, label %15

14:                                               ; preds = %7
  br label %19

15:                                               ; preds = %7
  br label %16

16:                                               ; preds = %15
  %17 = load i32, ptr %3, align 4, !tbaa !3
  %18 = add i32 %17, -1
  store i32 %18, ptr %3, align 4, !tbaa !3
  br label %4, !llvm.loop !13

19:                                               ; preds = %14, %4
  %20 = load i32, ptr %3, align 4, !tbaa !3
  call void @llvm.lifetime.end.p0(i64 4, ptr %3) #9
  ret i32 %20
}

; Function Attrs: nounwind uwtable
define i32 @SetShortInt(ptr noundef %0, ptr noundef %1, i32 noundef %2, i32 noundef %3) #0 {
  %5 = alloca i32, align 4
  %6 = alloca ptr, align 8
  %7 = alloca ptr, align 8
  %8 = alloca i32, align 4
  %9 = alloca i32, align 4
  %10 = alloca i32, align 4
  %11 = alloca i32, align 4
  %12 = alloca i32, align 4
  %13 = alloca i32, align 4
  store ptr %0, ptr %6, align 8, !tbaa !7
  store ptr %1, ptr %7, align 8, !tbaa !18
  store i32 %2, ptr %8, align 4, !tbaa !3
  store i32 %3, ptr %9, align 4, !tbaa !3
  call void @llvm.lifetime.start.p0(i64 4, ptr %10) #9
  %14 = load ptr, ptr %7, align 8, !tbaa !18
  %15 = load i32, ptr %14, align 4, !tbaa !3
  store i32 %15, ptr %10, align 4, !tbaa !3
  call void @llvm.lifetime.start.p0(i64 4, ptr %11) #9
  call void @llvm.lifetime.start.p0(i64 4, ptr %12) #9
  %16 = load i32, ptr %8, align 4, !tbaa !3
  %17 = icmp eq i32 %16, 0
  br i1 %17, label %18, label %19

18:                                               ; preds = %4
  store i32 1, ptr %11, align 4, !tbaa !3
  br label %22

19:                                               ; preds = %4
  %20 = load i32, ptr %8, align 4, !tbaa !3
  %21 = call i32 @BytePrecision(i32 noundef %20)
  store i32 %21, ptr %11, align 4, !tbaa !3
  br label %22

22:                                               ; preds = %19, %18
  %23 = load i32, ptr %10, align 4, !tbaa !3
  %24 = add i32 %23, 2
  %25 = load i32, ptr %11, align 4, !tbaa !3
  %26 = add i32 %24, %25
  %27 = load i32, ptr %9, align 4, !tbaa !3
  %28 = icmp ugt i32 %26, %27
  br i1 %28, label %29, label %30

29:                                               ; preds = %22
  store i32 -132, ptr %5, align 4
  store i32 1, ptr %13, align 4
  br label %75

30:                                               ; preds = %22
  %31 = load i32, ptr %11, align 4, !tbaa !3
  %32 = add i32 2, %31
  %33 = icmp ugt i32 %32, 6
  br i1 %33, label %34, label %35

34:                                               ; preds = %30
  store i32 -140, ptr %5, align 4
  store i32 1, ptr %13, align 4
  br label %75

35:                                               ; preds = %30
  %36 = load ptr, ptr %6, align 8, !tbaa !7
  %37 = load i32, ptr %10, align 4, !tbaa !3
  %38 = add i32 %37, 1
  store i32 %38, ptr %10, align 4, !tbaa !3
  %39 = zext i32 %37 to i64
  %40 = getelementptr inbounds nuw i8, ptr %36, i64 %39
  store i8 2, ptr %40, align 1, !tbaa !10
  %41 = load i32, ptr %11, align 4, !tbaa !3
  %42 = trunc i32 %41 to i8
  %43 = load ptr, ptr %6, align 8, !tbaa !7
  %44 = load i32, ptr %10, align 4, !tbaa !3
  %45 = add i32 %44, 1
  store i32 %45, ptr %10, align 4, !tbaa !3
  %46 = zext i32 %44 to i64
  %47 = getelementptr inbounds nuw i8, ptr %43, i64 %46
  store i8 %42, ptr %47, align 1, !tbaa !10
  %48 = load i32, ptr %11, align 4, !tbaa !3
  %49 = sub nsw i32 %48, 1
  store i32 %49, ptr %12, align 4, !tbaa !3
  br label %50

50:                                               ; preds = %64, %35
  %51 = load i32, ptr %12, align 4, !tbaa !3
  %52 = icmp sge i32 %51, 0
  br i1 %52, label %53, label %67

53:                                               ; preds = %50
  %54 = load i32, ptr %8, align 4, !tbaa !3
  %55 = load i32, ptr %12, align 4, !tbaa !3
  %56 = mul nsw i32 %55, 8
  %57 = lshr i32 %54, %56
  %58 = trunc i32 %57 to i8
  %59 = load ptr, ptr %6, align 8, !tbaa !7
  %60 = load i32, ptr %10, align 4, !tbaa !3
  %61 = add i32 %60, 1
  store i32 %61, ptr %10, align 4, !tbaa !3
  %62 = zext i32 %60 to i64
  %63 = getelementptr inbounds nuw i8, ptr %59, i64 %62
  store i8 %58, ptr %63, align 1, !tbaa !10
  br label %64

64:                                               ; preds = %53
  %65 = load i32, ptr %12, align 4, !tbaa !3
  %66 = add nsw i32 %65, -1
  store i32 %66, ptr %12, align 4, !tbaa !3
  br label %50, !llvm.loop !58

67:                                               ; preds = %50
  %68 = load i32, ptr %10, align 4, !tbaa !3
  %69 = load ptr, ptr %7, align 8, !tbaa !18
  %70 = load i32, ptr %69, align 4, !tbaa !3
  %71 = sub i32 %68, %70
  store i32 %71, ptr %11, align 4, !tbaa !3
  %72 = load i32, ptr %10, align 4, !tbaa !3
  %73 = load ptr, ptr %7, align 8, !tbaa !18
  store i32 %72, ptr %73, align 4, !tbaa !3
  %74 = load i32, ptr %11, align 4, !tbaa !3
  store i32 %74, ptr %5, align 4
  store i32 1, ptr %13, align 4
  br label %75

75:                                               ; preds = %67, %34, %29
  call void @llvm.lifetime.end.p0(i64 4, ptr %12) #9
  call void @llvm.lifetime.end.p0(i64 4, ptr %11) #9
  call void @llvm.lifetime.end.p0(i64 4, ptr %10) #9
  %76 = load i32, ptr %5, align 4
  ret i32 %76
}