; Function Attrs: nofree norecurse nosync nounwind memory(argmem: readwrite) uwtable
define i32 @SetShortInt(ptr noundef writeonly captures(none) %0, ptr noundef captures(none) %1, i32 noundef %2, i32 noundef %3) local_unnamed_addr #6 {
  %5 = load i32, ptr %1, align 4, !tbaa !22
  %6 = icmp eq i32 %2, 0
  br i1 %6, label %BytePrecision.exit, label %.preheader

.preheader:                                       ; preds = %4, %10
  %.06.i = phi i32 [ %11, %10 ], [ 4, %4 ]
  %7 = shl i32 %.06.i, 3
  %8 = add nsw i32 %7, -8
  %9 = lshr i32 %2, %8
  %.not5.i = icmp eq i32 %9, 0
  br i1 %.not5.i, label %10, label %BytePrecision.exit

10:                                               ; preds = %.preheader
  %11 = add nsw i32 %.06.i, -1
  %.not.i = icmp eq i32 %11, 0
  br i1 %.not.i, label %BytePrecision.exit, label %.preheader, !llvm.loop !6

BytePrecision.exit:                               ; preds = %10, %.preheader, %4
  %.024 = phi i32 [ 1, %4 ], [ 0, %10 ], [ %.06.i, %.preheader ]
  %12 = add i32 %5, 2
  %13 = add i32 %.024, %12
  %14 = icmp ugt i32 %13, %3
  br i1 %14, label %35, label %15

15:                                               ; preds = %BytePrecision.exit
  %16 = add i32 %.024, -5
  %17 = icmp ult i32 %16, -7
  br i1 %17, label %35, label %18

18:                                               ; preds = %15
  %19 = add i32 %5, 1
  %20 = zext i32 %5 to i64
  %21 = getelementptr inbounds nuw i8, ptr %0, i64 %20
  store i8 2, ptr %21, align 1, !tbaa !3
  %22 = trunc i32 %.024 to i8
  %23 = zext i32 %19 to i64
  %24 = getelementptr inbounds nuw i8, ptr %0, i64 %23
  store i8 %22, ptr %24, align 1, !tbaa !3
  %25 = icmp sgt i32 %.024, 0
  br i1 %25, label %.lr.ph, label %._crit_edge

.lr.ph:                                           ; preds = %18, %.lr.ph
  %.0.in29 = phi i32 [ %.0, %.lr.ph ], [ %.024, %18 ]
  %.02528 = phi i32 [ %29, %.lr.ph ], [ %12, %18 ]
  %.0 = add nsw i32 %.0.in29, -1
  %26 = shl nsw i32 %.0, 3
  %27 = lshr i32 %2, %26
  %28 = trunc i32 %27 to i8
  %29 = add i32 %.02528, 1
  %30 = zext i32 %.02528 to i64
  %31 = getelementptr inbounds nuw i8, ptr %0, i64 %30
  store i8 %28, ptr %31, align 1, !tbaa !3
  %32 = icmp samesign ugt i32 %.0.in29, 1
  br i1 %32, label %.lr.ph, label %._crit_edge, !llvm.loop !47

._crit_edge:                                      ; preds = %.lr.ph, %18
  %.025.lcssa = phi i32 [ %12, %18 ], [ %29, %.lr.ph ]
  %33 = load i32, ptr %1, align 4, !tbaa !22
  %34 = sub i32 %.025.lcssa, %33
  store i32 %.025.lcssa, ptr %1, align 4, !tbaa !22
  br label %35

35:                                               ; preds = %15, %BytePrecision.exit, %._crit_edge
  %.026 = phi i32 [ %34, %._crit_edge ], [ -132, %BytePrecision.exit ], [ -140, %15 ]
  ret i32 %.026
}